; Function Attrs: mustprogress uwtable
define internal noundef i64 @_ZNK7rocksdb12_GLOBAL__N_130CompositeSequentialFileWrapper26GetRequiredBufferAlignmentEv(ptr noundef nonnull readonly align 8 captures(none) dereferenceable(16) %0) unnamed_addr #0 align 2 {
  %2 = getelementptr inbounds nuw i8, ptr %0, i64 8
  %3 = load ptr, ptr %2, align 8, !tbaa !101
  %4 = load ptr, ptr %3, align 8, !tbaa !73
  %5 = getelementptr inbounds nuw i8, ptr %4, i64 40
  %6 = load ptr, ptr %5, align 8
  %7 = tail call noundef i64 %6(ptr noundef nonnull align 8 dereferenceable(8) %3)
  ret i64 %7
}